target datalayout = "e-m:e-p270:32:32-p271:32:32-p272:64:64-i64:64-i128:128-f80:128-n8:16:32:64-S128"
target triple = "x86_64-pc-linux-gnu"

%struct._object = type { %union.anon, ptr }
%union.anon = type { i64 }
%struct.PyModuleObject = type { %struct._object, ptr, ptr, ptr, ptr, ptr }

@_Py_NoneStruct = external global %struct._object, align 8

; Function Attrs: inlinehint nounwind uwtable
define internal ptr @_PyModule_GetState(ptr noundef %0) #3 {
  %2 = alloca ptr, align 8
  store ptr %0, ptr %2, align 8, !tbaa !3
  %3 = load ptr, ptr %2, align 8, !tbaa !3
  %4 = getelementptr inbounds nuw %struct.PyModuleObject, ptr %3, i32 0, i32 3
  %5 = load ptr, ptr %4, align 8, !tbaa !65
  ret ptr %5
}

; Function Attrs: nounwind uwtable
define internal ptr @get_array_state(ptr noundef %0) #0 {
  %2 = alloca ptr, align 8
  store ptr %0, ptr %2, align 8, !tbaa !3
  %3 = load ptr, ptr %2, align 8, !tbaa !3
  %4 = call ptr @_PyModule_GetState(ptr noundef %3)
  ret ptr %4
}

; Function Attrs: nounwind uwtable
define internal ptr @array_array_extend_impl(ptr noundef %0, ptr noundef %1, ptr noundef %2) #0 {
  %4 = alloca ptr, align 8
  %5 = alloca ptr, align 8
  %6 = alloca ptr, align 8
  %7 = alloca ptr, align 8
  %8 = alloca ptr, align 8
  %9 = alloca i32, align 4
  store ptr %0, ptr %5, align 8, !tbaa !68
  store ptr %1, ptr %6, align 8, !tbaa !18
  store ptr %2, ptr %7, align 8, !tbaa !3
  call void @llvm.lifetime.start.p0(i64 8, ptr %8) #8
  %10 = load ptr, ptr %6, align 8, !tbaa !18
  %11 = call ptr @PyType_GetModule(ptr noundef %10)
  %12 = call ptr @get_array_state(ptr noundef %11)
  store ptr %12, ptr %8, align 8, !tbaa !8
  %13 = load ptr, ptr %8, align 8, !tbaa !8
  %14 = load ptr, ptr %5, align 8, !tbaa !68
  %15 = load ptr, ptr %7, align 8, !tbaa !3
  %16 = call i32 @array_do_extend(ptr noundef %13, ptr noundef %14, ptr noundef %15)
  %17 = icmp eq i32 %16, -1
  br i1 %17, label %18, label %19

18:                                               ; preds = %3
  store ptr null, ptr %4, align 8
  store i32 1, ptr %9, align 4
  br label %20

19:                                               ; preds = %3
  store ptr @_Py_NoneStruct, ptr %4, align 8
  store i32 1, ptr %9, align 4
  br label %20

20:                                               ; preds = %19, %18
  call void @llvm.lifetime.end.p0(i64 8, ptr %8) #8
  %21 = load ptr, ptr %4, align 8
  ret ptr %21
}

; Function Attrs: nounwind uwtable
define internal ptr @array_array_extend(ptr noundef %0, ptr noundef %1, ptr noundef %2, i64 noundef %3, ptr noundef %4) #0 {
  %6 = alloca ptr, align 8
  %7 = alloca ptr, align 8
  %8 = alloca ptr, align 8
  %9 = alloca i64, align 8
  %10 = alloca ptr, align 8
  %11 = alloca ptr, align 8
  %12 = alloca [1 x ptr], align 8
  %13 = alloca ptr, align 8
  store ptr %0, ptr %6, align 8, !tbaa !3
  store ptr %1, ptr %7, align 8, !tbaa !18
  store ptr %2, ptr %8, align 8, !tbaa !19
  store i64 %3, ptr %9, align 8, !tbaa !21
  store ptr %4, ptr %10, align 8, !tbaa !3
  call void @llvm.lifetime.start.p0(i64 8, ptr %11) #8
  store ptr null, ptr %11, align 8, !tbaa !3
  call void @llvm.lifetime.start.p0(i64 8, ptr %12) #8
  call void @llvm.lifetime.start.p0(i64 8, ptr %13) #8
  %14 = load ptr, ptr %10, align 8, !tbaa !3
  %15 = icmp eq ptr %14, null
  br i1 %15, label %16, label %27

16:                                               ; preds = %5
  %17 = load i64, ptr %9, align 8, !tbaa !21
  %18 = icmp sle i64 1, %17
  br i1 %18, label %19, label %27

19:                                               ; preds = %16
  %20 = load i64, ptr %9, align 8, !tbaa !21
  %21 = icmp sle i64 %20, 1
  br i1 %21, label %22, label %27

22:                                               ; preds = %19
  %23 = load ptr, ptr %8, align 8, !tbaa !19
  %24 = icmp ne ptr %23, null
  br i1 %24, label %25, label %27

25:                                               ; preds = %22
  %26 = load ptr, ptr %8, align 8, !tbaa !19
  br label %33

27:                                               ; preds = %22, %19, %16, %5
  %28 = load ptr, ptr %8, align 8, !tbaa !19
  %29 = load i64, ptr %9, align 8, !tbaa !21
  %30 = load ptr, ptr %10, align 8, !tbaa !3
  %31 = getelementptr inbounds [1 x ptr], ptr %12, i64 0, i64 0
  %32 = call ptr @_PyArg_UnpackKeywords(ptr noundef %28, i64 noundef %29, ptr noundef null, ptr noundef %30, ptr noundef @array_array_extend._parser, i32 noundef 1, i32 noundef 1, i32 noundef 0, i32 noundef 0, ptr noundef %31)
  br label %33

33:                                               ; preds = %27, %25
  %34 = phi ptr [ %26, %25 ], [ %32, %27 ]
  store ptr %34, ptr %8, align 8, !tbaa !19
  %35 = load ptr, ptr %8, align 8, !tbaa !19
  %36 = icmp ne ptr %35, null
  br i1 %36, label %38, label %37

37:                                               ; preds = %33
  br label %46

38:                                               ; preds = %33
  %39 = load ptr, ptr %8, align 8, !tbaa !19
  %40 = getelementptr ptr, ptr %39, i64 0
  %41 = load ptr, ptr %40, align 8, !tbaa !3
  store ptr %41, ptr %13, align 8, !tbaa !3
  %42 = load ptr, ptr %6, align 8, !tbaa !3
  %43 = load ptr, ptr %7, align 8, !tbaa !18
  %44 = load ptr, ptr %13, align 8, !tbaa !3
  %45 = call ptr @array_array_extend_impl(ptr noundef %42, ptr noundef %43, ptr noundef %44)
  store ptr %45, ptr %11, align 8, !tbaa !3
  br label %46

46:                                               ; preds = %38, %37
  %47 = load ptr, ptr %11, align 8, !tbaa !3
  call void @llvm.lifetime.end.p0(i64 8, ptr %13) #8
  call void @llvm.lifetime.end.p0(i64 8, ptr %12) #8
  call void @llvm.lifetime.end.p0(i64 8, ptr %11) #8
  ret ptr %47
}