; Function Attrs: nounwind uwtable
define internal ptr @array_array_extend(ptr noundef %0, ptr noundef %1, ptr noundef %2, i64 noundef %3, ptr noundef %4) #0 {
  %6 = alloca [1 x ptr], align 8
  call void @llvm.lifetime.start.p0(i64 8, ptr nonnull %6) #11
  %7 = icmp eq ptr %4, null
  %8 = icmp eq i64 %3, 1
  %or.cond3 = and i1 %8, %7
  %9 = icmp ne ptr %2, null
  %or.cond5 = and i1 %9, %or.cond3
  br i1 %or.cond5, label %.thread, label %10

10:                                               ; preds = %5
  %11 = call ptr @_PyArg_UnpackKeywords(ptr noundef %2, i64 noundef %3, ptr noundef null, ptr noundef %4, ptr noundef nonnull @array_array_extend._parser, i32 noundef 1, i32 noundef 1, i32 noundef 0, i32 noundef 0, ptr noundef nonnull %6) #11
  %.not = icmp eq ptr %11, null
  br i1 %.not, label %18, label %.thread

.thread:                                          ; preds = %5, %10
  %12 = phi ptr [ %11, %10 ], [ %2, %5 ]
  %13 = load ptr, ptr %12, align 8, !tbaa !18
  %14 = call ptr @PyType_GetModule(ptr noundef %1) #11
  %15 = getelementptr i8, ptr %14, i64 32
  %.val.i = load ptr, ptr %15, align 8, !tbaa !3
  %.val5.i = load ptr, ptr %.val.i, align 8, !tbaa !12
  %16 = call fastcc i32 @array_do_extend(ptr %.val5.i, ptr noundef %0, ptr noundef %13)
  %17 = icmp eq i32 %16, -1
  %._Py_NoneStruct.i = select i1 %17, ptr null, ptr @_Py_NoneStruct
  br label %18

18:                                               ; preds = %10, %.thread
  %.0 = phi ptr [ %._Py_NoneStruct.i, %.thread ], [ null, %10 ]
  call void @llvm.lifetime.end.p0(i64 8, ptr nonnull %6) #11
  ret ptr %.0
}